target datalayout = "e-m:e-p270:32:32-p271:32:32-p272:64:64-i64:64-i128:128-f80:128-n8:16:32:64-S128"
target triple = "x86_64-pc-linux-gnu"

%"class.testing::internal::DeathTestImpl" = type <{ %"class.testing::internal::DeathTest", ptr, ptr, i8, [3 x i8], i32, i32, i32, i32, [4 x i8] }>
%"class.testing::internal::DeathTest" = type { ptr }
%"class.testing::internal::ForkingDeathTest" = type { %"class.testing::internal::DeathTestImpl.base", i32 }
%"class.testing::internal::DeathTestImpl.base" = type <{ %"class.testing::internal::DeathTest", ptr, ptr, i8, [3 x i8], i32, i32, i32, i32 }>

; Function Attrs: mustprogress uwtable
define linkonce_odr hidden void @_ZN7testing8internal13DeathTestImplC2EPKcPKNS0_2REE(ptr noundef nonnull align 8 dereferenceable(44) %0, ptr noundef %1, ptr noundef %2) unnamed_addr #6 comdat align 2 {
  %4 = alloca ptr, align 8
  %5 = alloca ptr, align 8
  %6 = alloca ptr, align 8
  store ptr %0, ptr %4, align 8, !tbaa !623
  store ptr %1, ptr %5, align 8, !tbaa !15
  store ptr %2, ptr %6, align 8, !tbaa !619
  %7 = load ptr, ptr %4, align 8
  call void @_ZN7testing8internal9DeathTestC2Ev(ptr noundef nonnull align 8 dereferenceable(8) %7)
  store ptr getelementptr inbounds inrange(-16, 48) ({ [8 x ptr] }, ptr @_ZTVN7testing8internal13DeathTestImplE, i32 0, i32 0, i32 2), ptr %7, align 8, !tbaa !33
  %8 = getelementptr inbounds nuw %"class.testing::internal::DeathTestImpl", ptr %7, i32 0, i32 1
  %9 = load ptr, ptr %5, align 8, !tbaa !15
  store ptr %9, ptr %8, align 8, !tbaa !642
  %10 = getelementptr inbounds nuw %"class.testing::internal::DeathTestImpl", ptr %7, i32 0, i32 2
  %11 = load ptr, ptr %6, align 8, !tbaa !619
  store ptr %11, ptr %10, align 8, !tbaa !648
  %12 = getelementptr inbounds nuw %"class.testing::internal::DeathTestImpl", ptr %7, i32 0, i32 3
  store i8 0, ptr %12, align 8, !tbaa !641
  %13 = getelementptr inbounds nuw %"class.testing::internal::DeathTestImpl", ptr %7, i32 0, i32 5
  store i32 -1, ptr %13, align 4, !tbaa !650
  %14 = getelementptr inbounds nuw %"class.testing::internal::DeathTestImpl", ptr %7, i32 0, i32 6
  store i32 0, ptr %14, align 8, !tbaa !633
  %15 = getelementptr inbounds nuw %"class.testing::internal::DeathTestImpl", ptr %7, i32 0, i32 7
  store i32 -1, ptr %15, align 4, !tbaa !628
  %16 = getelementptr inbounds nuw %"class.testing::internal::DeathTestImpl", ptr %7, i32 0, i32 8
  store i32 -1, ptr %16, align 8, !tbaa !640
  ret void
}

; Function Attrs: mustprogress uwtable
define hidden void @_ZN7testing8internal16ForkingDeathTestC2EPKcPKNS0_2REE(ptr noundef nonnull align 8 dereferenceable(48) %0, ptr noundef %1, ptr noundef %2) unnamed_addr #6 align 2 {
  %4 = alloca ptr, align 8
  %5 = alloca ptr, align 8
  %6 = alloca ptr, align 8
  store ptr %0, ptr %4, align 8, !tbaa !651
  store ptr %1, ptr %5, align 8, !tbaa !15
  store ptr %2, ptr %6, align 8, !tbaa !619
  %7 = load ptr, ptr %4, align 8
  %8 = load ptr, ptr %5, align 8, !tbaa !15
  %9 = load ptr, ptr %6, align 8, !tbaa !619
  call void @_ZN7testing8internal13DeathTestImplC2EPKcPKNS0_2REE(ptr noundef nonnull align 8 dereferenceable(44) %7, ptr noundef %8, ptr noundef %9)
  store ptr getelementptr inbounds inrange(-16, 48) ({ [8 x ptr] }, ptr @_ZTVN7testing8internal16ForkingDeathTestE, i32 0, i32 0, i32 2), ptr %7, align 8, !tbaa !33
  %10 = getelementptr inbounds nuw %"class.testing::internal::ForkingDeathTest", ptr %7, i32 0, i32 1
  store i32 -1, ptr %10, align 4, !tbaa !653
  ret void
}