; Function Attrs: mustprogress uwtable
define hidden void @_ZN7testing8internal16ForkingDeathTestC2EPKcPKNS0_2REE(ptr noundef nonnull writeonly align 8 captures(none) dereferenceable(48) initializes((0, 25), (28, 48)) %0, ptr noundef %1, ptr noundef %2) unnamed_addr #4 align 2 {
  tail call void @_ZN7testing8internal9DeathTestC2Ev(ptr noundef nonnull align 8 dereferenceable(44) %0)
  %4 = getelementptr inbounds nuw i8, ptr %0, i64 8
  store ptr %1, ptr %4, align 8, !tbaa !1190
  %5 = getelementptr inbounds nuw i8, ptr %0, i64 16
  store ptr %2, ptr %5, align 8, !tbaa !1191
  %6 = getelementptr inbounds nuw i8, ptr %0, i64 24
  store i8 0, ptr %6, align 8, !tbaa !1189
  %7 = getelementptr inbounds nuw i8, ptr %0, i64 28
  store i32 -1, ptr %7, align 4, !tbaa !1197
  %8 = getelementptr inbounds nuw i8, ptr %0, i64 32
  store i32 0, ptr %8, align 8, !tbaa !1133
  %9 = getelementptr inbounds nuw i8, ptr %0, i64 36
  store i32 -1, ptr %9, align 4, !tbaa !1127
  %10 = getelementptr inbounds nuw i8, ptr %0, i64 40
  store i32 -1, ptr %10, align 8, !tbaa !1163
  store ptr getelementptr inbounds nuw inrange(-16, 48) (i8, ptr @_ZTVN7testing8internal16ForkingDeathTestE, i64 16), ptr %0, align 8, !tbaa !23
  %11 = getelementptr inbounds nuw i8, ptr %0, i64 44
  store i32 -1, ptr %11, align 4, !tbaa !1214
  ret void
}